target datalayout = "e-m:e-p270:32:32-p271:32:32-p272:64:64-i64:64-i128:128-f80:128-n8:16:32:64-S128"
target triple = "x86_64-unknown-linux-gnu"

%"class.icu_75::TimeZoneRule" = type { %"class.icu_75::UObject", %"class.icu_75::UnicodeString", i32, i32 }
%"class.icu_75::UObject" = type { ptr }
%"class.icu_75::UnicodeString" = type { %"class.icu_75::Replaceable", %"union.icu_75::UnicodeString::StackBufferOrFields" }
%"class.icu_75::Replaceable" = type { %"class.icu_75::UObject" }
%"union.icu_75::UnicodeString::StackBufferOrFields" = type { %struct.anon.0, [32 x i8] }
%struct.anon.0 = type { i16, i32, i32, ptr }

; Function Attrs: mustprogress uwtable
define noundef nonnull align 8 dereferenceable(80) ptr @_ZN6icu_7512TimeZoneRuleaSERKS0_(ptr noundef nonnull align 8 dereferenceable(80) %this, ptr noundef nonnull align 8 dereferenceable(80) %right) #0 align 2 {
entry:
  %this.addr = alloca ptr, align 8
  %right.addr = alloca ptr, align 8
  store ptr %this, ptr %this.addr, align 8
  store ptr %right, ptr %right.addr, align 8
  %this1 = load ptr, ptr %this.addr, align 8
  %0 = load ptr, ptr %right.addr, align 8
  %cmp = icmp ne ptr %this1, %0
  br i1 %cmp, label %if.then, label %if.end

if.then:                                          ; preds = %entry
  %1 = load ptr, ptr %right.addr, align 8
  %fName = getelementptr inbounds %"class.icu_75::TimeZoneRule", ptr %1, i32 0, i32 1
  %fName2 = getelementptr inbounds %"class.icu_75::TimeZoneRule", ptr %this1, i32 0, i32 1
  %call = call noundef nonnull align 8 dereferenceable(64) ptr @_ZN6icu_7513UnicodeStringaSERKS0_(ptr noundef nonnull align 8 dereferenceable(64) %fName2, ptr noundef nonnull align 8 dereferenceable(64) %fName)
  %2 = load ptr, ptr %right.addr, align 8
  %fRawOffset = getelementptr inbounds %"class.icu_75::TimeZoneRule", ptr %2, i32 0, i32 2
  %3 = load i32, ptr %fRawOffset, align 8
  %fRawOffset3 = getelementptr inbounds %"class.icu_75::TimeZoneRule", ptr %this1, i32 0, i32 2
  store i32 %3, ptr %fRawOffset3, align 8
  %4 = load ptr, ptr %right.addr, align 8
  %fDSTSavings = getelementptr inbounds %"class.icu_75::TimeZoneRule", ptr %4, i32 0, i32 3
  %5 = load i32, ptr %fDSTSavings, align 4
  %fDSTSavings4 = getelementptr inbounds %"class.icu_75::TimeZoneRule", ptr %this1, i32 0, i32 3
  store i32 %5, ptr %fDSTSavings4, align 4
  br label %if.end

if.end:                                           ; preds = %if.then, %entry
  ret ptr %this1
}

; Function Attrs: mustprogress uwtable
define noundef nonnull align 8 dereferenceable(80) ptr @_ZN6icu_7519InitialTimeZoneRuleaSERKS0_(ptr noundef nonnull align 8 dereferenceable(80) %this, ptr noundef nonnull align 8 dereferenceable(80) %right) #0 align 2 {
entry:
  %this.addr = alloca ptr, align 8
  %right.addr = alloca ptr, align 8
  store ptr %this, ptr %this.addr, align 8
  store ptr %right, ptr %right.addr, align 8
  %this1 = load ptr, ptr %this.addr, align 8
  %0 = load ptr, ptr %right.addr, align 8
  %cmp = icmp ne ptr %this1, %0
  br i1 %cmp, label %if.then, label %if.end

if.then:                                          ; preds = %entry
  %1 = load ptr, ptr %right.addr, align 8
  %call = call noundef nonnull align 8 dereferenceable(80) ptr @_ZN6icu_7512TimeZoneRuleaSERKS0_(ptr noundef nonnull align 8 dereferenceable(80) %this1, ptr noundef nonnull align 8 dereferenceable(80) %1)
  br label %if.end

if.end:                                           ; preds = %if.then, %entry
  ret ptr %this1
}